; Function Attrs: mustprogress nofree norecurse nounwind willreturn memory(readwrite, inaccessiblemem: none) uwtable
define noundef zeroext i1 @_ZN17grpc_event_engine12experimental17Epoll1EventHandle16IsHandleShutdownEv(ptr nocapture noundef nonnull readonly align 8 dereferenceable(80) %this) unnamed_addr #11 align 2 personality ptr @__gxx_personality_v0 {
entry:
  %read_closure_ = getelementptr inbounds i8, ptr %this, i64 56
  %0 = load ptr, ptr %read_closure_, align 8
  %1 = load atomic i64, ptr %0 monotonic, align 8
  %and.i = and i64 %1, 1
  %cmp.i = icmp ne i64 %and.i, 0
  ret i1 %cmp.i
}